target datalayout = "e-m:e-p270:32:32-p271:32:32-p272:64:64-i64:64-i128:128-f80:128-n8:16:32:64-S128"
target triple = "x86_64-pc-linux-gnu"

%struct.sview_config_t = type { ptr, ptr, ptr, ptr, ptr, ptr, ptr, i16, i16, i8, i16, i32, i32, i32, i8, i32, i32, i32, i32, [10 x ptr], [10 x %struct.page_opts_t], [10 x i8], i16, i8, i8, i8, i8, i16, i32 }
%struct.page_opts_t = type { ptr, i8, ptr, ptr }
%struct.display_data = type { i64, i32, ptr, i8, i32, ptr, ptr, ptr, ptr, ptr, ptr, ptr, ptr }
%struct.signal_params_t = type { ptr, ptr }

@.str.3 = private unnamed_addr constant [9 x i8] c"common.c\00", align 1
@.str.8 = private unnamed_addr constant [19 x i8] c"button-press-event\00", align 1
@working_sview_config = external global %struct.sview_config_t, align 8
@__func__.create_treeview = private unnamed_addr constant [16 x i8] c"create_treeview\00", align 1
@.str.16 = private unnamed_addr constant [18 x i8] c"key_release_event\00", align 1
@.str.17 = private unnamed_addr constant [16 x i8] c"key_press_event\00", align 1
@.str.18 = private unnamed_addr constant [14 x i8] c"row-activated\00", align 1
@signal_params_list = external global ptr, align 8

; Function Attrs: nounwind uwtable
define dso_local ptr @create_treeview(ptr noundef %0, ptr noundef %1) #0 {
  %3 = alloca ptr, align 8
  %4 = alloca ptr, align 8
  %5 = alloca ptr, align 8
  %6 = alloca ptr, align 8
  store ptr %0, ptr %3, align 8
  store ptr %1, ptr %4, align 8
  call void @llvm.lifetime.start.p0(i64 8, ptr %5) #11
  %7 = call ptr @slurm_xcalloc(i64 noundef 1, i64 noundef 16, i1 noundef zeroext true, i1 noundef zeroext false, ptr noundef @.str.3, i32 noundef 965, ptr noundef @__func__.create_treeview)
  store ptr %7, ptr %5, align 8
  call void @llvm.lifetime.start.p0(i64 8, ptr %6) #11
  %8 = call ptr @gtk_tree_view_new()
  %9 = call i64 @gtk_tree_view_get_type() #12
  %10 = call ptr @g_type_check_instance_cast(ptr noundef %8, i64 noundef %9)
  store ptr %10, ptr %6, align 8
  %11 = load ptr, ptr %3, align 8
  %12 = getelementptr inbounds nuw %struct.display_data, ptr %11, i32 0, i32 11
  store ptr null, ptr %12, align 8
  %13 = load ptr, ptr %3, align 8
  %14 = load ptr, ptr %5, align 8
  %15 = getelementptr inbounds nuw %struct.signal_params_t, ptr %14, i32 0, i32 0
  store ptr %13, ptr %15, align 8
  %16 = load ptr, ptr %4, align 8
  %17 = load ptr, ptr %5, align 8
  %18 = getelementptr inbounds nuw %struct.signal_params_t, ptr %17, i32 0, i32 1
  store ptr %16, ptr %18, align 8
  %19 = load i8, ptr getelementptr inbounds nuw (%struct.sview_config_t, ptr @working_sview_config, i32 0, i32 23), align 4, !range !23, !noundef !24
  %20 = trunc i8 %19 to i1
  br i1 %20, label %21, label %23

21:                                               ; preds = %2
  %22 = load ptr, ptr %6, align 8
  call void @gtk_tree_view_set_rules_hint(ptr noundef %22, i32 noundef 1)
  br label %23

23:                                               ; preds = %21, %2
  %24 = load ptr, ptr %6, align 8
  %25 = call ptr @g_type_check_instance_cast(ptr noundef %24, i64 noundef 80)
  %26 = load ptr, ptr %5, align 8
  %27 = call i64 @g_signal_connect_data(ptr noundef %25, ptr noundef @.str.8, ptr noundef @row_clicked, ptr noundef %26, ptr noundef null, i32 noundef 0)
  %28 = load ptr, ptr %6, align 8
  %29 = call ptr @g_type_check_instance_cast(ptr noundef %28, i64 noundef 80)
  %30 = load ptr, ptr %5, align 8
  %31 = call i64 @g_signal_connect_data(ptr noundef %29, ptr noundef @.str.16, ptr noundef @key_released, ptr noundef %30, ptr noundef null, i32 noundef 0)
  %32 = load ptr, ptr %6, align 8
  %33 = call ptr @g_type_check_instance_cast(ptr noundef %32, i64 noundef 80)
  %34 = load ptr, ptr %5, align 8
  %35 = call i64 @g_signal_connect_data(ptr noundef %33, ptr noundef @.str.17, ptr noundef @key_pressed, ptr noundef %34, ptr noundef null, i32 noundef 0)
  %36 = load ptr, ptr %6, align 8
  %37 = call ptr @g_type_check_instance_cast(ptr noundef %36, i64 noundef 80)
  %38 = load ptr, ptr %5, align 8
  %39 = call i64 @g_signal_connect_data(ptr noundef %37, ptr noundef @.str.18, ptr noundef @row_activated, ptr noundef %38, ptr noundef null, i32 noundef 0)
  %40 = load ptr, ptr %6, align 8
  %41 = call i64 @gtk_widget_get_type() #12
  %42 = call ptr @g_type_check_instance_cast(ptr noundef %40, i64 noundef %41)
  call void @gtk_widget_show(ptr noundef %42)
  %43 = load ptr, ptr @signal_params_list, align 8
  %44 = load ptr, ptr %5, align 8
  call void @list_push(ptr noundef %43, ptr noundef %44)
  %45 = load ptr, ptr %6, align 8
  call void @llvm.lifetime.end.p0(i64 8, ptr %6) #11
  call void @llvm.lifetime.end.p0(i64 8, ptr %5) #11
  ret ptr %45
}