; Function Attrs: nounwind uwtable
define dso_local ptr @create_treeview(ptr noundef initializes((80, 88)) %0, ptr noundef %1) local_unnamed_addr #2 {
  %3 = tail call ptr @slurm_xcalloc(i64 noundef 1, i64 noundef 16, i1 noundef zeroext true, i1 noundef zeroext false, ptr noundef nonnull @.str.3, i32 noundef 965, ptr noundef nonnull @__func__.create_treeview) #16
  %4 = tail call ptr @gtk_tree_view_new() #16
  %5 = tail call i64 @gtk_tree_view_get_type() #17
  %6 = tail call ptr @g_type_check_instance_cast(ptr noundef %4, i64 noundef %5) #16
  %7 = getelementptr inbounds nuw i8, ptr %0, i64 80
  store ptr null, ptr %7, align 8
  store ptr %0, ptr %3, align 8
  %8 = getelementptr inbounds nuw i8, ptr %3, i64 8
  store ptr %1, ptr %8, align 8
  %9 = load i8, ptr getelementptr inbounds nuw (i8, ptr @working_sview_config, i64 508), align 4, !range !21, !noundef !22
  %10 = trunc nuw i8 %9 to i1
  br i1 %10, label %11, label %12

11:                                               ; preds = %2
  tail call void @gtk_tree_view_set_rules_hint(ptr noundef %6, i32 noundef 1) #16
  br label %12

12:                                               ; preds = %11, %2
  %13 = tail call ptr @g_type_check_instance_cast(ptr noundef %6, i64 noundef 80) #16
  %14 = tail call i64 @g_signal_connect_data(ptr noundef %13, ptr noundef nonnull @.str.8, ptr noundef nonnull @row_clicked, ptr noundef nonnull %3, ptr noundef null, i32 noundef 0) #16
  %15 = tail call ptr @g_type_check_instance_cast(ptr noundef %6, i64 noundef 80) #16
  %16 = tail call i64 @g_signal_connect_data(ptr noundef %15, ptr noundef nonnull @.str.16, ptr noundef nonnull @key_released, ptr noundef nonnull %3, ptr noundef null, i32 noundef 0) #16
  %17 = tail call ptr @g_type_check_instance_cast(ptr noundef %6, i64 noundef 80) #16
  %18 = tail call i64 @g_signal_connect_data(ptr noundef %17, ptr noundef nonnull @.str.17, ptr noundef nonnull @key_pressed, ptr noundef nonnull %3, ptr noundef null, i32 noundef 0) #16
  %19 = tail call ptr @g_type_check_instance_cast(ptr noundef %6, i64 noundef 80) #16
  %20 = tail call i64 @g_signal_connect_data(ptr noundef %19, ptr noundef nonnull @.str.18, ptr noundef nonnull @row_activated, ptr noundef nonnull %3, ptr noundef null, i32 noundef 0) #16
  %21 = tail call i64 @gtk_widget_get_type() #17
  %22 = tail call ptr @g_type_check_instance_cast(ptr noundef %6, i64 noundef %21) #16
  tail call void @gtk_widget_show(ptr noundef %22) #16
  %23 = load ptr, ptr @signal_params_list, align 8
  tail call void @list_push(ptr noundef %23, ptr noundef nonnull %3) #16
  ret ptr %6
}